; ModuleID = 'source-C-CXX/32/106.c'
source_filename = "source-C-CXX/32/106.c"
target datalayout = "e-m:e-p270:32:32-p271:32:32-p272:64:64-i64:64-f80:128-n8:16:32:64-S128"
target triple = "x86_64-pc-linux-gnu"

@.str = private unnamed_addr constant [3 x i8] c"%d\00", align 1
@.str.1 = private unnamed_addr constant [3 x i8] c"%s\00", align 1

; Function Attrs: nofree nounwind sspstrong uwtable
define dso_local i32 @main() local_unnamed_addr #0 {
  %1 = alloca i32, align 4
  %2 = alloca [1000 x [256 x i8]], align 16
  %3 = bitcast i32* %1 to i8*
  call void @llvm.lifetime.start.p0i8(i64 4, i8* nonnull %3) #5
  %4 = getelementptr inbounds [1000 x [256 x i8]], [1000 x [256 x i8]]* %2, i64 0, i64 0, i64 0
  call void @llvm.lifetime.start.p0i8(i64 256000, i8* nonnull %4) #5
  %5 = call i32 (i8*, ...) @__isoc99_scanf(i8* getelementptr inbounds ([3 x i8], [3 x i8]* @.str, i64 0, i64 0), i32* nonnull %1)
  %6 = load i32, i32* %1, align 4, !tbaa !5
  %7 = icmp sgt i32 %6, 0
  br i1 %7, label %10, label %44

8:                                                ; preds = %31
  %9 = icmp sgt i32 %33, 0
  br i1 %9, label %36, label %44

10:                                               ; preds = %0, %31
  %11 = phi i64 [ %32, %31 ], [ 0, %0 ]
  %12 = getelementptr inbounds [1000 x [256 x i8]], [1000 x [256 x i8]]* %2, i64 0, i64 %11, i64 0
  %13 = call i32 (i8*, ...) @__isoc99_scanf(i8* getelementptr inbounds ([3 x i8], [3 x i8]* @.str.1, i64 0, i64 0), i8* nonnull %12)
  %14 = call i64 @strlen(i8* noundef nonnull %12) #6
  %15 = trunc i64 %14 to i32
  %16 = icmp sgt i32 %15, 0
  br i1 %16, label %17, label %31

17:                                               ; preds = %10, %24
  %18 = phi i64 [ %26, %24 ], [ 0, %10 ]
  %19 = getelementptr inbounds [1000 x [256 x i8]], [1000 x [256 x i8]]* %2, i64 0, i64 %11, i64 %18
  %20 = load i8, i8* %19, align 1, !tbaa !9
  switch i8 %20, label %23 [
    i8 65, label %24
    i8 84, label %21
    i8 67, label %22
  ]

21:                                               ; preds = %17
  br label %24

22:                                               ; preds = %17
  br label %24

23:                                               ; preds = %17
  br label %24

24:                                               ; preds = %17, %22, %23, %21
  %25 = phi i8 [ 71, %22 ], [ 67, %23 ], [ 65, %21 ], [ 84, %17 ]
  store i8 %25, i8* %19, align 1, !tbaa !9
  %26 = add nuw nsw i64 %18, 1
  %27 = call i64 @strlen(i8* noundef nonnull %12) #6
  %28 = shl i64 %27, 32
  %29 = ashr exact i64 %28, 32
  %30 = icmp slt i64 %26, %29
  br i1 %30, label %17, label %31, !llvm.loop !10

31:                                               ; preds = %24, %10
  %32 = add nuw nsw i64 %11, 1
  %33 = load i32, i32* %1, align 4, !tbaa !5
  %34 = sext i32 %33 to i64
  %35 = icmp slt i64 %32, %34
  br i1 %35, label %10, label %8, !llvm.loop !12

36:                                               ; preds = %8, %36
  %37 = phi i64 [ %40, %36 ], [ 0, %8 ]
  %38 = getelementptr inbounds [1000 x [256 x i8]], [1000 x [256 x i8]]* %2, i64 0, i64 %37, i64 0
  %39 = call i32 @puts(i8* nonnull %38)
  %40 = add nuw nsw i64 %37, 1
  %41 = load i32, i32* %1, align 4, !tbaa !5
  %42 = sext i32 %41 to i64
  %43 = icmp slt i64 %40, %42
  br i1 %43, label %36, label %44, !llvm.loop !13

44:                                               ; preds = %36, %0, %8
  call void @llvm.lifetime.end.p0i8(i64 256000, i8* nonnull %4) #5
  call void @llvm.lifetime.end.p0i8(i64 4, i8* nonnull %3) #5
  ret i32 0
}

; Function Attrs: argmemonly mustprogress nofree nosync nounwind willreturn
declare void @llvm.lifetime.start.p0i8(i64 immarg, i8* nocapture) #1

; Function Attrs: nofree nounwind
declare noundef i32 @__isoc99_scanf(i8* nocapture noundef readonly, ...) local_unnamed_addr #2

; Function Attrs: argmemonly mustprogress nofree nounwind readonly willreturn
declare i64 @strlen(i8* nocapture) local_unnamed_addr #3

; Function Attrs: argmemonly mustprogress nofree nosync nounwind willreturn
declare void @llvm.lifetime.end.p0i8(i64 immarg, i8* nocapture) #1

; Function Attrs: nofree nounwind
declare noundef i32 @puts(i8* nocapture noundef readonly) local_unnamed_addr #4


!llvm.module.flags = !{!0, !1, !2, !3}
!llvm.ident = !{!4}

!0 = !{i32 1, !"wchar_size", i32 4}
!1 = !{i32 7, !"PIC Level", i32 2}
!2 = !{i32 7, !"PIE Level", i32 2}
!3 = !{i32 7, !"uwtable", i32 1}
!4 = !{!"clang version 13.0.0"}
!5 = !{!6, !6, i64 0}
!6 = !{!"int", !7, i64 0}
!7 = !{!"omnipotent char", !8, i64 0}
!8 = !{!"Simple C/C++ TBAA"}
!9 = !{!7, !7, i64 0}
!10 = distinct !{!10, !11}
!11 = !{!"llvm.loop.mustprogress"}
!12 = distinct !{!12, !11}
!13 = distinct !{!13, !11}
